target datalayout = "e-m:e-p270:32:32-p271:32:32-p272:64:64-i64:64-i128:128-f80:128-n8:16:32:64-S128"
target triple = "x86_64-pc-linux-gnu"

%"class.icu_77::UnicodeString" = type { %"class.icu_77::Replaceable", %"union.icu_77::UnicodeString::StackBufferOrFields" }
%"class.icu_77::Replaceable" = type { %"class.icu_77::UObject" }
%"class.icu_77::UObject" = type { ptr }
%"union.icu_77::UnicodeString::StackBufferOrFields" = type { %struct.anon.0, [32 x i8] }
%struct.anon.0 = type { i16, i32, i32, ptr }
%"class.icu_77::UnescapeTransliterator" = type { %"class.icu_77::Transliterator.base", ptr }
%"class.icu_77::Transliterator.base" = type <{ %"class.icu_77::UObject", %"class.icu_77::UnicodeString", ptr, i32 }>

; Function Attrs: mustprogress uwtable
define internal noundef ptr @_ZN6icu_77L8copySpecEPKDs(ptr noundef %0) #1 {
  %2 = alloca ptr, align 8
  %3 = alloca i32, align 4
  %4 = alloca ptr, align 8
  store ptr %0, ptr %2, align 8, !tbaa !29
  call void @llvm.lifetime.start.p0(i64 4, ptr %3) #10
  store i32 0, ptr %3, align 4, !tbaa !14
  br label %5

5:                                                ; preds = %13, %1
  %6 = load ptr, ptr %2, align 8, !tbaa !29
  %7 = load i32, ptr %3, align 4, !tbaa !14
  %8 = sext i32 %7 to i64
  %9 = getelementptr inbounds i16, ptr %6, i64 %8
  %10 = load i16, ptr %9, align 2, !tbaa !45
  %11 = zext i16 %10 to i32
  %12 = icmp ne i32 %11, 65535
  br i1 %12, label %13, label %16

13:                                               ; preds = %5
  %14 = load i32, ptr %3, align 4, !tbaa !14
  %15 = add nsw i32 %14, 1
  store i32 %15, ptr %3, align 4, !tbaa !14
  br label %5, !llvm.loop !47

16:                                               ; preds = %5
  %17 = load i32, ptr %3, align 4, !tbaa !14
  %18 = add nsw i32 %17, 1
  store i32 %18, ptr %3, align 4, !tbaa !14
  call void @llvm.lifetime.start.p0(i64 8, ptr %4) #10
  %19 = load i32, ptr %3, align 4, !tbaa !14
  %20 = sext i32 %19 to i64
  %21 = mul i64 %20, 2
  %22 = call noalias ptr @uprv_malloc_77(i64 noundef %21) #11
  store ptr %22, ptr %4, align 8, !tbaa !29
  %23 = load ptr, ptr %4, align 8, !tbaa !29
  %24 = icmp ne ptr %23, null
  br i1 %24, label %25, label %34

25:                                               ; preds = %16
  br label %26

26:                                               ; preds = %25
  %27 = load ptr, ptr %4, align 8, !tbaa !29
  %28 = load ptr, ptr %2, align 8, !tbaa !29
  %29 = load i32, ptr %3, align 4, !tbaa !14
  %30 = sext i32 %29 to i64
  %31 = mul i64 %30, 2
  call void @llvm.memcpy.p0.p0.i64(ptr align 2 %27, ptr align 2 %28, i64 %31, i1 false)
  br label %32

32:                                               ; preds = %26
  br label %33

33:                                               ; preds = %32
  br label %34

34:                                               ; preds = %33, %16
  %35 = load ptr, ptr %4, align 8, !tbaa !29
  call void @llvm.lifetime.end.p0(i64 8, ptr %4) #10
  call void @llvm.lifetime.end.p0(i64 4, ptr %3) #10
  ret ptr %35
}

; Function Attrs: mustprogress uwtable
define void @_ZN6icu_7722UnescapeTransliteratorC2ERKNS_13UnicodeStringEPKDs(ptr noundef nonnull align 8 dereferenceable(96) %0, ptr noundef nonnull align 8 dereferenceable(64) %1, ptr noundef %2) unnamed_addr #1 align 2 personality ptr @__gxx_personality_v0 {
  %4 = alloca ptr, align 8
  %5 = alloca ptr, align 8
  %6 = alloca ptr, align 8
  %7 = alloca ptr, align 8
  %8 = alloca i32, align 4
  store ptr %0, ptr %4, align 8, !tbaa !23
  store ptr %1, ptr %5, align 8, !tbaa !33
  store ptr %2, ptr %6, align 8, !tbaa !29
  %9 = load ptr, ptr %4, align 8
  %10 = load ptr, ptr %5, align 8, !tbaa !33
  call void @_ZN6icu_7714TransliteratorC2ERKNS_13UnicodeStringEPNS_13UnicodeFilterE(ptr noundef nonnull align 8 dereferenceable(84) %9, ptr noundef nonnull align 8 dereferenceable(64) %10, ptr noundef null)
  store ptr getelementptr inbounds inrange(-16, 136) ({ [19 x ptr] }, ptr @_ZTVN6icu_7722UnescapeTransliteratorE, i32 0, i32 0, i32 2), ptr %9, align 8, !tbaa !36
  %11 = load ptr, ptr %6, align 8, !tbaa !29
  %12 = invoke noundef ptr @_ZN6icu_77L8copySpecEPKDs(ptr noundef %11)
          to label %13 unwind label %15

13:                                               ; preds = %3
  %14 = getelementptr inbounds nuw %"class.icu_77::UnescapeTransliterator", ptr %9, i32 0, i32 1
  store ptr %12, ptr %14, align 8, !tbaa !38
  ret void

15:                                               ; preds = %3
  %16 = landingpad { ptr, i32 }
          cleanup
  %17 = extractvalue { ptr, i32 } %16, 0
  store ptr %17, ptr %7, align 8
  %18 = extractvalue { ptr, i32 } %16, 1
  store i32 %18, ptr %8, align 4
  call void @_ZN6icu_7714TransliteratorD2Ev(ptr noundef nonnull align 8 dereferenceable(84) %9) #10
  br label %19

19:                                               ; preds = %15
  %20 = load ptr, ptr %7, align 8
  %21 = load i32, ptr %8, align 4
  %22 = insertvalue { ptr, i32 } poison, ptr %20, 0
  %23 = insertvalue { ptr, i32 } %22, i32 %21, 1
  resume { ptr, i32 } %23
}