; Function Attrs: mustprogress uwtable
define void @_ZN6icu_7722UnescapeTransliteratorC2ERKNS_13UnicodeStringEPKDs(ptr noundef nonnull align 8 dereferenceable(96) %0, ptr noundef nonnull align 8 dereferenceable(64) %1, ptr noundef readonly captures(none) %2) unnamed_addr #1 align 2 personality ptr @__gxx_personality_v0 {
  tail call void @_ZN6icu_7714TransliteratorC2ERKNS_13UnicodeStringEPNS_13UnicodeFilterE(ptr noundef nonnull align 8 dereferenceable(84) %0, ptr noundef nonnull align 8 dereferenceable(64) %1, ptr noundef null)
  store ptr getelementptr inbounds nuw inrange(-16, 136) (i8, ptr @_ZTVN6icu_7722UnescapeTransliteratorE, i64 16), ptr %0, align 8, !tbaa !19
  br label %4

4:                                                ; preds = %4, %3
  %indvars.iv.i = phi i64 [ %indvars.iv.next.i, %4 ], [ 0, %3 ]
  %5 = getelementptr inbounds nuw i16, ptr %2, i64 %indvars.iv.i
  %6 = load i16, ptr %5, align 2, !tbaa !21
  %.not.i = icmp eq i16 %6, -1
  %indvars.iv.next.i = add nuw nsw i64 %indvars.iv.i, 1
  br i1 %.not.i, label %7, label %4, !llvm.loop !23

7:                                                ; preds = %4
  %8 = shl nuw i64 %indvars.iv.i, 1
  %9 = add i64 %8, 2
  %10 = and i64 %9, 4294967294
  %11 = invoke noalias ptr @uprv_malloc_77(i64 noundef %10) #14
          to label %.noexc unwind label %14

.noexc:                                           ; preds = %7
  %.not10.i = icmp eq ptr %11, null
  br i1 %.not10.i, label %_ZN6icu_77L8copySpecEPKDs.exit, label %12

12:                                               ; preds = %.noexc
  tail call void @llvm.memcpy.p0.p0.i64(ptr nonnull align 2 %11, ptr nonnull readonly align 2 %2, i64 %10, i1 false)
  br label %_ZN6icu_77L8copySpecEPKDs.exit

_ZN6icu_77L8copySpecEPKDs.exit:                   ; preds = %12, %.noexc
  %13 = getelementptr inbounds nuw i8, ptr %0, i64 88
  store ptr %11, ptr %13, align 8, !tbaa !25
  ret void

14:                                               ; preds = %7
  %15 = landingpad { ptr, i32 }
          cleanup
  tail call void @_ZN6icu_7714TransliteratorD2Ev(ptr noundef nonnull align 8 dereferenceable(84) %0) #13
  resume { ptr, i32 } %15
}